target datalayout = "e-m:e-p270:32:32-p271:32:32-p272:64:64-i64:64-i128:128-f80:128-n8:16:32:64-S128"
target triple = "x86_64-pc-linux-gnu"

%struct.iq2_entry_t = type { ptr, ptr, ptr }

@iq2_data = internal global [4 x %struct.iq2_entry_t] zeroinitializer, align 16
@.str = private unnamed_addr constant [120 x i8] c"generated/home/dtcxzyw/WorkSpace/Projects/compilers/llvm-opt-benchmark/bench/llama.cpp/llama.cpp/ggml/src/ggml-quants.c\00", align 1
@.str.1 = private unnamed_addr constant [23 x i8] c"GGML_ASSERT(%s) failed\00", align 1
@.str.2 = private unnamed_addr constant [135 x i8] c"type == GGML_TYPE_IQ2_XXS || type == GGML_TYPE_IQ2_XS || type == GGML_TYPE_IQ1_S || type == GGML_TYPE_IQ1_M || type == GGML_TYPE_IQ2_S\00", align 1

; Function Attrs: inlinehint nounwind uwtable
define internal i32 @iq2_data_index(i32 noundef %0) #3 {
  %2 = alloca i32, align 4
  store i32 %0, ptr %2, align 4, !tbaa !11
  %3 = load i32, ptr %2, align 4, !tbaa !11
  %4 = icmp eq i32 %3, 16
  br i1 %4, label %18, label %5

5:                                                ; preds = %1
  %6 = load i32, ptr %2, align 4, !tbaa !11
  %7 = icmp eq i32 %6, 17
  br i1 %7, label %18, label %8

8:                                                ; preds = %5
  %9 = load i32, ptr %2, align 4, !tbaa !11
  %10 = icmp eq i32 %9, 19
  br i1 %10, label %18, label %11

11:                                               ; preds = %8
  %12 = load i32, ptr %2, align 4, !tbaa !11
  %13 = icmp eq i32 %12, 29
  br i1 %13, label %18, label %14

14:                                               ; preds = %11
  %15 = load i32, ptr %2, align 4, !tbaa !11
  %16 = icmp eq i32 %15, 22
  br i1 %16, label %18, label %17

17:                                               ; preds = %14
  call void (ptr, i32, ptr, ...) @ggml_abort(ptr noundef @.str, i32 noundef 2545, ptr noundef @.str.1, ptr noundef @.str.2) #11
  unreachable

18:                                               ; preds = %14, %11, %8, %5, %1
  %19 = load i32, ptr %2, align 4, !tbaa !11
  %20 = icmp eq i32 %19, 16
  br i1 %20, label %21, label %22

21:                                               ; preds = %18
  br label %37

22:                                               ; preds = %18
  %23 = load i32, ptr %2, align 4, !tbaa !11
  %24 = icmp eq i32 %23, 17
  br i1 %24, label %25, label %26

25:                                               ; preds = %22
  br label %35

26:                                               ; preds = %22
  %27 = load i32, ptr %2, align 4, !tbaa !11
  %28 = icmp eq i32 %27, 19
  br i1 %28, label %32, label %29

29:                                               ; preds = %26
  %30 = load i32, ptr %2, align 4, !tbaa !11
  %31 = icmp eq i32 %30, 29
  br label %32

32:                                               ; preds = %29, %26
  %33 = phi i1 [ true, %26 ], [ %31, %29 ]
  %34 = select i1 %33, i32 2, i32 3
  br label %35

35:                                               ; preds = %32, %25
  %36 = phi i32 [ 1, %25 ], [ %34, %32 ]
  br label %37

37:                                               ; preds = %35, %21
  %38 = phi i32 [ 0, %21 ], [ %36, %35 ]
  ret i32 %38
}

; Function Attrs: nounwind uwtable
define void @iq2xs_free_impl(i32 noundef %0) #0 {
  %2 = alloca i32, align 4
  %3 = alloca i32, align 4
  store i32 %0, ptr %2, align 4, !tbaa !11
  %4 = load i32, ptr %2, align 4, !tbaa !11
  %5 = icmp eq i32 %4, 16
  br i1 %5, label %19, label %6

6:                                                ; preds = %1
  %7 = load i32, ptr %2, align 4, !tbaa !11
  %8 = icmp eq i32 %7, 17
  br i1 %8, label %19, label %9

9:                                                ; preds = %6
  %10 = load i32, ptr %2, align 4, !tbaa !11
  %11 = icmp eq i32 %10, 19
  br i1 %11, label %19, label %12

12:                                               ; preds = %9
  %13 = load i32, ptr %2, align 4, !tbaa !11
  %14 = icmp eq i32 %13, 29
  br i1 %14, label %19, label %15

15:                                               ; preds = %12
  %16 = load i32, ptr %2, align 4, !tbaa !11
  %17 = icmp eq i32 %16, 22
  br i1 %17, label %19, label %18

18:                                               ; preds = %15
  call void (ptr, i32, ptr, ...) @ggml_abort(ptr noundef @.str, i32 noundef 2921, ptr noundef @.str.1, ptr noundef @.str.2) #11
  unreachable

19:                                               ; preds = %15, %12, %9, %6, %1
  call void @llvm.lifetime.start.p0(i64 4, ptr %3) #10
  %20 = load i32, ptr %2, align 4, !tbaa !11
  %21 = call i32 @iq2_data_index(i32 noundef %20)
  store i32 %21, ptr %3, align 4, !tbaa !11
  %22 = load i32, ptr %3, align 4, !tbaa !11
  %23 = sext i32 %22 to i64
  %24 = getelementptr inbounds [4 x %struct.iq2_entry_t], ptr @iq2_data, i64 0, i64 %23
  %25 = getelementptr inbounds nuw %struct.iq2_entry_t, ptr %24, i32 0, i32 0
  %26 = load ptr, ptr %25, align 8, !tbaa !313
  %27 = icmp ne ptr %26, null
  br i1 %27, label %28, label %56

28:                                               ; preds = %19
  %29 = load i32, ptr %3, align 4, !tbaa !11
  %30 = sext i32 %29 to i64
  %31 = getelementptr inbounds [4 x %struct.iq2_entry_t], ptr @iq2_data, i64 0, i64 %30
  %32 = getelementptr inbounds nuw %struct.iq2_entry_t, ptr %31, i32 0, i32 0
  %33 = load ptr, ptr %32, align 8, !tbaa !313
  call void @free(ptr noundef %33) #10
  %34 = load i32, ptr %3, align 4, !tbaa !11
  %35 = sext i32 %34 to i64
  %36 = getelementptr inbounds [4 x %struct.iq2_entry_t], ptr @iq2_data, i64 0, i64 %35
  %37 = getelementptr inbounds nuw %struct.iq2_entry_t, ptr %36, i32 0, i32 0
  store ptr null, ptr %37, align 8, !tbaa !313
  %38 = load i32, ptr %3, align 4, !tbaa !11
  %39 = sext i32 %38 to i64
  %40 = getelementptr inbounds [4 x %struct.iq2_entry_t], ptr @iq2_data, i64 0, i64 %39
  %41 = getelementptr inbounds nuw %struct.iq2_entry_t, ptr %40, i32 0, i32 1
  %42 = load ptr, ptr %41, align 8, !tbaa !321
  call void @free(ptr noundef %42) #10
  %43 = load i32, ptr %3, align 4, !tbaa !11
  %44 = sext i32 %43 to i64
  %45 = getelementptr inbounds [4 x %struct.iq2_entry_t], ptr @iq2_data, i64 0, i64 %44
  %46 = getelementptr inbounds nuw %struct.iq2_entry_t, ptr %45, i32 0, i32 1
  store ptr null, ptr %46, align 8, !tbaa !321
  %47 = load i32, ptr %3, align 4, !tbaa !11
  %48 = sext i32 %47 to i64
  %49 = getelementptr inbounds [4 x %struct.iq2_entry_t], ptr @iq2_data, i64 0, i64 %48
  %50 = getelementptr inbounds nuw %struct.iq2_entry_t, ptr %49, i32 0, i32 2
  %51 = load ptr, ptr %50, align 8, !tbaa !330
  call void @free(ptr noundef %51) #10
  %52 = load i32, ptr %3, align 4, !tbaa !11
  %53 = sext i32 %52 to i64
  %54 = getelementptr inbounds [4 x %struct.iq2_entry_t], ptr @iq2_data, i64 0, i64 %53
  %55 = getelementptr inbounds nuw %struct.iq2_entry_t, ptr %54, i32 0, i32 2
  store ptr null, ptr %55, align 8, !tbaa !330
  br label %56

56:                                               ; preds = %28, %19
  call void @llvm.lifetime.end.p0(i64 4, ptr %3) #10
  ret void
}