; Function Attrs: nounwind uwtable
define void @iq2xs_free_impl(i32 noundef %0) local_unnamed_addr #6 {
  switch i32 %0, label %2 [
    i32 16, label %iq2_data_index.exit
    i32 17, label %.fold.split.i
    i32 19, label %3
    i32 22, label %3
    i32 29, label %3
  ]

2:                                                ; preds = %1
  tail call void (ptr, i32, ptr, ...) @ggml_abort(ptr noundef nonnull @.str, i32 noundef 2921, ptr noundef nonnull @.str.1, ptr noundef nonnull @.str.2) #24
  unreachable

3:                                                ; preds = %1, %1, %1
  %4 = icmp eq i32 %0, 29
  %5 = icmp eq i32 %0, 19
  %6 = or i1 %5, %4
  %7 = select i1 %6, i64 2, i64 3
  br label %iq2_data_index.exit

.fold.split.i:                                    ; preds = %1
  br label %iq2_data_index.exit

iq2_data_index.exit:                              ; preds = %1, %3, %.fold.split.i
  %8 = phi i64 [ %7, %3 ], [ 1, %.fold.split.i ], [ 0, %1 ]
  %9 = getelementptr inbounds nuw [4 x %struct.iq2_entry_t], ptr @iq2_data, i64 0, i64 %8
  %10 = load ptr, ptr %9, align 8, !tbaa !685
  %.not = icmp eq ptr %10, null
  br i1 %.not, label %16, label %11

11:                                               ; preds = %iq2_data_index.exit
  tail call void @free(ptr noundef nonnull %10) #23
  store ptr null, ptr %9, align 8, !tbaa !685
  %12 = getelementptr inbounds nuw i8, ptr %9, i64 8
  %13 = load ptr, ptr %12, align 8, !tbaa !691
  tail call void @free(ptr noundef %13) #23
  store ptr null, ptr %12, align 8, !tbaa !691
  %14 = getelementptr inbounds nuw i8, ptr %9, i64 16
  %15 = load ptr, ptr %14, align 8, !tbaa !698
  tail call void @free(ptr noundef %15) #23
  store ptr null, ptr %14, align 8, !tbaa !698
  br label %16

16:                                               ; preds = %11, %iq2_data_index.exit
  ret void
}